target datalayout = "e-m:e-p270:32:32-p271:32:32-p272:64:64-i64:64-i128:128-f80:128-n8:16:32:64-S128"
target triple = "x86_64-pc-linux-gnu"

%struct.strbuf = type { i64, i64, ptr }
%struct.note_data = type { i32, i32, ptr, %struct.strbuf, ptr, i64, i64 }
%struct.note_msg = type { i32, %struct.strbuf }

; Function Attrs: nounwind uwtable
define internal void @free_note_data(ptr noundef %0) #0 {
  %2 = alloca ptr, align 8
  store ptr %0, ptr %2, align 8, !tbaa !68
  %3 = load ptr, ptr %2, align 8, !tbaa !68
  %4 = getelementptr inbounds nuw %struct.note_data, ptr %3, i32 0, i32 2
  %5 = load ptr, ptr %4, align 8, !tbaa !81
  %6 = icmp ne ptr %5, null
  br i1 %6, label %7, label %15

7:                                                ; preds = %1
  %8 = load ptr, ptr %2, align 8, !tbaa !68
  %9 = getelementptr inbounds nuw %struct.note_data, ptr %8, i32 0, i32 2
  %10 = load ptr, ptr %9, align 8, !tbaa !81
  %11 = call i32 @unlink_or_warn(ptr noundef %10)
  %12 = load ptr, ptr %2, align 8, !tbaa !68
  %13 = getelementptr inbounds nuw %struct.note_data, ptr %12, i32 0, i32 2
  %14 = load ptr, ptr %13, align 8, !tbaa !81
  call void @free(ptr noundef %14) #11
  br label %15

15:                                               ; preds = %7, %1
  %16 = load ptr, ptr %2, align 8, !tbaa !68
  %17 = getelementptr inbounds nuw %struct.note_data, ptr %16, i32 0, i32 3
  call void @strbuf_release(ptr noundef %17)
  br label %18

18:                                               ; preds = %24, %15
  %19 = load ptr, ptr %2, align 8, !tbaa !68
  %20 = getelementptr inbounds nuw %struct.note_data, ptr %19, i32 0, i32 5
  %21 = load i64, ptr %20, align 8, !tbaa !36
  %22 = add i64 %21, -1
  store i64 %22, ptr %20, align 8, !tbaa !36
  %23 = icmp ne i64 %21, 0
  br i1 %23, label %24, label %42

24:                                               ; preds = %18
  %25 = load ptr, ptr %2, align 8, !tbaa !68
  %26 = getelementptr inbounds nuw %struct.note_data, ptr %25, i32 0, i32 4
  %27 = load ptr, ptr %26, align 8, !tbaa !73
  %28 = load ptr, ptr %2, align 8, !tbaa !68
  %29 = getelementptr inbounds nuw %struct.note_data, ptr %28, i32 0, i32 5
  %30 = load i64, ptr %29, align 8, !tbaa !36
  %31 = getelementptr inbounds nuw ptr, ptr %27, i64 %30
  %32 = load ptr, ptr %31, align 8, !tbaa !70
  %33 = getelementptr inbounds nuw %struct.note_msg, ptr %32, i32 0, i32 1
  call void @strbuf_release(ptr noundef %33)
  %34 = load ptr, ptr %2, align 8, !tbaa !68
  %35 = getelementptr inbounds nuw %struct.note_data, ptr %34, i32 0, i32 4
  %36 = load ptr, ptr %35, align 8, !tbaa !73
  %37 = load ptr, ptr %2, align 8, !tbaa !68
  %38 = getelementptr inbounds nuw %struct.note_data, ptr %37, i32 0, i32 5
  %39 = load i64, ptr %38, align 8, !tbaa !36
  %40 = getelementptr inbounds nuw ptr, ptr %36, i64 %39
  %41 = load ptr, ptr %40, align 8, !tbaa !70
  call void @free(ptr noundef %41) #11
  br label %18, !llvm.loop !82

42:                                               ; preds = %18
  %43 = load ptr, ptr %2, align 8, !tbaa !68
  %44 = getelementptr inbounds nuw %struct.note_data, ptr %43, i32 0, i32 4
  %45 = load ptr, ptr %44, align 8, !tbaa !73
  call void @free(ptr noundef %45) #11
  ret void
}