; Function Attrs: nounwind uwtable
define internal fastcc void @free_note_data(ptr noundef nonnull %0) unnamed_addr #0 {
  %2 = getelementptr inbounds nuw i8, ptr %0, i64 8
  %3 = load ptr, ptr %2, align 8, !tbaa !90
  %.not = icmp eq ptr %3, null
  br i1 %.not, label %7, label %4

4:                                                ; preds = %1
  %5 = tail call i32 @unlink_or_warn(ptr noundef nonnull %3) #16
  %6 = load ptr, ptr %2, align 8, !tbaa !90
  tail call void @free(ptr noundef %6) #16
  br label %7

7:                                                ; preds = %4, %1
  %8 = getelementptr inbounds nuw i8, ptr %0, i64 16
  tail call void @strbuf_release(ptr noundef nonnull %8) #16
  %9 = getelementptr inbounds nuw i8, ptr %0, i64 48
  %10 = load i64, ptr %9, align 8, !tbaa !28
  %11 = add i64 %10, -1
  store i64 %11, ptr %9, align 8, !tbaa !28
  %.not1011 = icmp eq i64 %10, 0
  br i1 %.not1011, label %._crit_edge, label %.lr.ph

.lr.ph:                                           ; preds = %7
  %12 = getelementptr inbounds nuw i8, ptr %0, i64 40
  br label %13

13:                                               ; preds = %.lr.ph, %13
  %14 = phi i64 [ %11, %.lr.ph ], [ %24, %13 ]
  %15 = load ptr, ptr %12, align 8, !tbaa !80
  %16 = getelementptr inbounds nuw ptr, ptr %15, i64 %14
  %17 = load ptr, ptr %16, align 8, !tbaa !81
  %18 = getelementptr inbounds nuw i8, ptr %17, i64 8
  tail call void @strbuf_release(ptr noundef nonnull %18) #16
  %19 = load ptr, ptr %12, align 8, !tbaa !80
  %20 = load i64, ptr %9, align 8, !tbaa !28
  %21 = getelementptr inbounds nuw ptr, ptr %19, i64 %20
  %22 = load ptr, ptr %21, align 8, !tbaa !81
  tail call void @free(ptr noundef %22) #16
  %23 = load i64, ptr %9, align 8, !tbaa !28
  %24 = add i64 %23, -1
  store i64 %24, ptr %9, align 8, !tbaa !28
  %.not10 = icmp eq i64 %23, 0
  br i1 %.not10, label %._crit_edge, label %13, !llvm.loop !91

._crit_edge:                                      ; preds = %13, %7
  %25 = getelementptr inbounds nuw i8, ptr %0, i64 40
  %26 = load ptr, ptr %25, align 8, !tbaa !80
  tail call void @free(ptr noundef %26) #16
  ret void
}